target datalayout = "e-m:e-p270:32:32-p271:32:32-p272:64:64-i64:64-i128:128-f80:128-n8:16:32:64-S128"
target triple = "x86_64-pc-linux-gnu"

@.str.46 = private unnamed_addr constant [7 x i8] c"PACKET\00", align 1
@.str.84 = private unnamed_addr constant [4 x i8] c"RAW\00", align 1
@.str.85 = private unnamed_addr constant [4 x i8] c"RDM\00", align 1
@.str.86 = private unnamed_addr constant [6 x i8] c"DGRAM\00", align 1
@.str.87 = private unnamed_addr constant [7 x i8] c"STREAM\00", align 1
@.str.88 = private unnamed_addr constant [8 x i8] c"CLOEXEC\00", align 1
@.str.89 = private unnamed_addr constant [9 x i8] c"SOCK_RAW\00", align 1
@.str.90 = private unnamed_addr constant [9 x i8] c"SOCK_RDM\00", align 1
@.str.91 = private unnamed_addr constant [9 x i8] c"NONBLOCK\00", align 1
@.str.92 = private unnamed_addr constant [10 x i8] c"SEQPACKET\00", align 1
@.str.93 = private unnamed_addr constant [11 x i8] c"SOCK_DGRAM\00", align 1
@.str.94 = private unnamed_addr constant [12 x i8] c"SOCK_STREAM\00", align 1
@.str.95 = private unnamed_addr constant [12 x i8] c"SOCK_PACKET\00", align 1
@.str.96 = private unnamed_addr constant [13 x i8] c"SOCK_CLOEXEC\00", align 1
@.str.97 = private unnamed_addr constant [14 x i8] c"SOCK_NONBLOCK\00", align 1
@.str.98 = private unnamed_addr constant [15 x i8] c"SOCK_SEQPACKET\00", align 1

; Function Attrs: nounwind sspstrong uwtable
define i32 @rsock_socktype_to_int(ptr noundef %0, i64 noundef %1, ptr noundef %2) #0 {
  %4 = alloca i32, align 4
  %5 = alloca ptr, align 8
  %6 = alloca i64, align 8
  %7 = alloca ptr, align 8
  store ptr %0, ptr %5, align 8, !tbaa !6
  store i64 %1, ptr %6, align 8, !tbaa !11
  store ptr %2, ptr %7, align 8, !tbaa !13
  %8 = load i64, ptr %6, align 8, !tbaa !11
  switch i64 %8, label %116 [
    i64 3, label %9
    i64 5, label %22
    i64 6, label %29
    i64 7, label %42
    i64 8, label %49
    i64 9, label %68
    i64 10, label %75
    i64 11, label %82
    i64 12, label %95
    i64 13, label %102
    i64 14, label %109
  ]

9:                                                ; preds = %3
  %10 = load ptr, ptr %5, align 8, !tbaa !6
  %11 = call i32 @memcmp(ptr noundef %10, ptr noundef @.str.84, i64 noundef 3) #10
  %12 = icmp eq i32 %11, 0
  br i1 %12, label %13, label %15

13:                                               ; preds = %9
  %14 = load ptr, ptr %7, align 8, !tbaa !13
  store i32 3, ptr %14, align 4, !tbaa !15
  store i32 0, ptr %4, align 4
  br label %124

15:                                               ; preds = %9
  %16 = load ptr, ptr %5, align 8, !tbaa !6
  %17 = call i32 @memcmp(ptr noundef %16, ptr noundef @.str.85, i64 noundef 3) #10
  %18 = icmp eq i32 %17, 0
  br i1 %18, label %19, label %21

19:                                               ; preds = %15
  %20 = load ptr, ptr %7, align 8, !tbaa !13
  store i32 4, ptr %20, align 4, !tbaa !15
  store i32 0, ptr %4, align 4
  br label %124

21:                                               ; preds = %15
  store i32 -1, ptr %4, align 4
  br label %124

22:                                               ; preds = %3
  %23 = load ptr, ptr %5, align 8, !tbaa !6
  %24 = call i32 @memcmp(ptr noundef %23, ptr noundef @.str.86, i64 noundef 5) #10
  %25 = icmp eq i32 %24, 0
  br i1 %25, label %26, label %28

26:                                               ; preds = %22
  %27 = load ptr, ptr %7, align 8, !tbaa !13
  store i32 2, ptr %27, align 4, !tbaa !15
  store i32 0, ptr %4, align 4
  br label %124

28:                                               ; preds = %22
  store i32 -1, ptr %4, align 4
  br label %124

29:                                               ; preds = %3
  %30 = load ptr, ptr %5, align 8, !tbaa !6
  %31 = call i32 @memcmp(ptr noundef %30, ptr noundef @.str.87, i64 noundef 6) #10
  %32 = icmp eq i32 %31, 0
  br i1 %32, label %33, label %35

33:                                               ; preds = %29
  %34 = load ptr, ptr %7, align 8, !tbaa !13
  store i32 1, ptr %34, align 4, !tbaa !15
  store i32 0, ptr %4, align 4
  br label %124

35:                                               ; preds = %29
  %36 = load ptr, ptr %5, align 8, !tbaa !6
  %37 = call i32 @memcmp(ptr noundef %36, ptr noundef @.str.46, i64 noundef 6) #10
  %38 = icmp eq i32 %37, 0
  br i1 %38, label %39, label %41

39:                                               ; preds = %35
  %40 = load ptr, ptr %7, align 8, !tbaa !13
  store i32 10, ptr %40, align 4, !tbaa !15
  store i32 0, ptr %4, align 4
  br label %124

41:                                               ; preds = %35
  store i32 -1, ptr %4, align 4
  br label %124

42:                                               ; preds = %3
  %43 = load ptr, ptr %5, align 8, !tbaa !6
  %44 = call i32 @memcmp(ptr noundef %43, ptr noundef @.str.88, i64 noundef 7) #10
  %45 = icmp eq i32 %44, 0
  br i1 %45, label %46, label %48

46:                                               ; preds = %42
  %47 = load ptr, ptr %7, align 8, !tbaa !13
  store i32 524288, ptr %47, align 4, !tbaa !15
  store i32 0, ptr %4, align 4
  br label %124

48:                                               ; preds = %42
  store i32 -1, ptr %4, align 4
  br label %124

49:                                               ; preds = %3
  %50 = load ptr, ptr %5, align 8, !tbaa !6
  %51 = call i32 @memcmp(ptr noundef %50, ptr noundef @.str.89, i64 noundef 8) #10
  %52 = icmp eq i32 %51, 0
  br i1 %52, label %53, label %55

53:                                               ; preds = %49
  %54 = load ptr, ptr %7, align 8, !tbaa !13
  store i32 3, ptr %54, align 4, !tbaa !15
  store i32 0, ptr %4, align 4
  br label %124

55:                                               ; preds = %49
  %56 = load ptr, ptr %5, align 8, !tbaa !6
  %57 = call i32 @memcmp(ptr noundef %56, ptr noundef @.str.90, i64 noundef 8) #10
  %58 = icmp eq i32 %57, 0
  br i1 %58, label %59, label %61

59:                                               ; preds = %55
  %60 = load ptr, ptr %7, align 8, !tbaa !13
  store i32 4, ptr %60, align 4, !tbaa !15
  store i32 0, ptr %4, align 4
  br label %124

61:                                               ; preds = %55
  %62 = load ptr, ptr %5, align 8, !tbaa !6
  %63 = call i32 @memcmp(ptr noundef %62, ptr noundef @.str.91, i64 noundef 8) #10
  %64 = icmp eq i32 %63, 0
  br i1 %64, label %65, label %67

65:                                               ; preds = %61
  %66 = load ptr, ptr %7, align 8, !tbaa !13
  store i32 2048, ptr %66, align 4, !tbaa !15
  store i32 0, ptr %4, align 4
  br label %124

67:                                               ; preds = %61
  store i32 -1, ptr %4, align 4
  br label %124

68:                                               ; preds = %3
  %69 = load ptr, ptr %5, align 8, !tbaa !6
  %70 = call i32 @memcmp(ptr noundef %69, ptr noundef @.str.92, i64 noundef 9) #10
  %71 = icmp eq i32 %70, 0
  br i1 %71, label %72, label %74

72:                                               ; preds = %68
  %73 = load ptr, ptr %7, align 8, !tbaa !13
  store i32 5, ptr %73, align 4, !tbaa !15
  store i32 0, ptr %4, align 4
  br label %124

74:                                               ; preds = %68
  store i32 -1, ptr %4, align 4
  br label %124

75:                                               ; preds = %3
  %76 = load ptr, ptr %5, align 8, !tbaa !6
  %77 = call i32 @memcmp(ptr noundef %76, ptr noundef @.str.93, i64 noundef 10) #10
  %78 = icmp eq i32 %77, 0
  br i1 %78, label %79, label %81

79:                                               ; preds = %75
  %80 = load ptr, ptr %7, align 8, !tbaa !13
  store i32 2, ptr %80, align 4, !tbaa !15
  store i32 0, ptr %4, align 4
  br label %124

81:                                               ; preds = %75
  store i32 -1, ptr %4, align 4
  br label %124

82:                                               ; preds = %3
  %83 = load ptr, ptr %5, align 8, !tbaa !6
  %84 = call i32 @memcmp(ptr noundef %83, ptr noundef @.str.94, i64 noundef 11) #10
  %85 = icmp eq i32 %84, 0
  br i1 %85, label %86, label %88

86:                                               ; preds = %82
  %87 = load ptr, ptr %7, align 8, !tbaa !13
  store i32 1, ptr %87, align 4, !tbaa !15
  store i32 0, ptr %4, align 4
  br label %124

88:                                               ; preds = %82
  %89 = load ptr, ptr %5, align 8, !tbaa !6
  %90 = call i32 @memcmp(ptr noundef %89, ptr noundef @.str.95, i64 noundef 11) #10
  %91 = icmp eq i32 %90, 0
  br i1 %91, label %92, label %94

92:                                               ; preds = %88
  %93 = load ptr, ptr %7, align 8, !tbaa !13
  store i32 10, ptr %93, align 4, !tbaa !15
  store i32 0, ptr %4, align 4
  br label %124

94:                                               ; preds = %88
  store i32 -1, ptr %4, align 4
  br label %124

95:                                               ; preds = %3
  %96 = load ptr, ptr %5, align 8, !tbaa !6
  %97 = call i32 @memcmp(ptr noundef %96, ptr noundef @.str.96, i64 noundef 12) #10
  %98 = icmp eq i32 %97, 0
  br i1 %98, label %99, label %101

99:                                               ; preds = %95
  %100 = load ptr, ptr %7, align 8, !tbaa !13
  store i32 524288, ptr %100, align 4, !tbaa !15
  store i32 0, ptr %4, align 4
  br label %124

101:                                              ; preds = %95
  store i32 -1, ptr %4, align 4
  br label %124

102:                                              ; preds = %3
  %103 = load ptr, ptr %5, align 8, !tbaa !6
  %104 = call i32 @memcmp(ptr noundef %103, ptr noundef @.str.97, i64 noundef 13) #10
  %105 = icmp eq i32 %104, 0
  br i1 %105, label %106, label %108

106:                                              ; preds = %102
  %107 = load ptr, ptr %7, align 8, !tbaa !13
  store i32 2048, ptr %107, align 4, !tbaa !15
  store i32 0, ptr %4, align 4
  br label %124

108:                                              ; preds = %102
  store i32 -1, ptr %4, align 4
  br label %124

109:                                              ; preds = %3
  %110 = load ptr, ptr %5, align 8, !tbaa !6
  %111 = call i32 @memcmp(ptr noundef %110, ptr noundef @.str.98, i64 noundef 14) #10
  %112 = icmp eq i32 %111, 0
  br i1 %112, label %113, label %115

113:                                              ; preds = %109
  %114 = load ptr, ptr %7, align 8, !tbaa !13
  store i32 5, ptr %114, align 4, !tbaa !15
  store i32 0, ptr %4, align 4
  br label %124

115:                                              ; preds = %109
  store i32 -1, ptr %4, align 4
  br label %124

116:                                              ; preds = %3
  %117 = load ptr, ptr %5, align 8, !tbaa !6
  %118 = icmp ne ptr %117, null
  br i1 %118, label %119, label %122

119:                                              ; preds = %116
  %120 = load ptr, ptr %7, align 8, !tbaa !13
  %121 = icmp ne ptr %120, null
  br i1 %121, label %123, label %122

122:                                              ; preds = %119, %116
  br label %123

123:                                              ; preds = %122, %119
  store i32 -1, ptr %4, align 4
  br label %124

124:                                              ; preds = %123, %115, %113, %108, %106, %101, %99, %94, %92, %86, %81, %79, %74, %72, %67, %65, %59, %53, %48, %46, %41, %39, %33, %28, %26, %21, %19, %13
  %125 = load i32, ptr %4, align 4
  ret i32 %125
}