; Function Attrs: mustprogress nofree nounwind sspstrong willreturn memory(argmem: readwrite) uwtable
define range(i32 -1, 1) i32 @rsock_socktype_to_int(ptr noundef readonly captures(none) %0, i64 noundef %1, ptr noundef writeonly captures(none) %2) #1 {
  switch i64 %1, label %36 [
    i64 3, label %4
    i64 5, label %8
    i64 6, label %10
    i64 7, label %14
    i64 8, label %16
    i64 9, label %22
    i64 10, label %24
    i64 11, label %26
    i64 12, label %30
    i64 13, label %32
    i64 14, label %34
  ]

4:                                                ; preds = %3
  %bcmp49 = tail call i32 @bcmp(ptr noundef nonnull dereferenceable(3) %0, ptr noundef nonnull dereferenceable(3) @.str.84, i64 3)
  %5 = icmp eq i32 %bcmp49, 0
  br i1 %5, label %.sink.split, label %6

6:                                                ; preds = %4
  %bcmp50 = tail call i32 @bcmp(ptr noundef nonnull dereferenceable(3) %0, ptr noundef nonnull dereferenceable(3) @.str.85, i64 3)
  %7 = icmp eq i32 %bcmp50, 0
  br i1 %7, label %.sink.split, label %36

8:                                                ; preds = %3
  %bcmp48 = tail call i32 @bcmp(ptr noundef nonnull dereferenceable(5) %0, ptr noundef nonnull dereferenceable(5) @.str.86, i64 5)
  %9 = icmp eq i32 %bcmp48, 0
  br i1 %9, label %.sink.split, label %36

10:                                               ; preds = %3
  %bcmp46 = tail call i32 @bcmp(ptr noundef nonnull dereferenceable(6) %0, ptr noundef nonnull dereferenceable(6) @.str.87, i64 6)
  %11 = icmp eq i32 %bcmp46, 0
  br i1 %11, label %.sink.split, label %12

12:                                               ; preds = %10
  %bcmp47 = tail call i32 @bcmp(ptr noundef nonnull dereferenceable(6) %0, ptr noundef nonnull dereferenceable(6) @.str.46, i64 6)
  %13 = icmp eq i32 %bcmp47, 0
  br i1 %13, label %.sink.split, label %36

14:                                               ; preds = %3
  %bcmp45 = tail call i32 @bcmp(ptr noundef nonnull dereferenceable(7) %0, ptr noundef nonnull dereferenceable(7) @.str.88, i64 7)
  %15 = icmp eq i32 %bcmp45, 0
  br i1 %15, label %.sink.split, label %36

16:                                               ; preds = %3
  %bcmp42 = tail call i32 @bcmp(ptr noundef nonnull dereferenceable(8) %0, ptr noundef nonnull dereferenceable(8) @.str.89, i64 8)
  %17 = icmp eq i32 %bcmp42, 0
  br i1 %17, label %.sink.split, label %18

18:                                               ; preds = %16
  %bcmp43 = tail call i32 @bcmp(ptr noundef nonnull dereferenceable(8) %0, ptr noundef nonnull dereferenceable(8) @.str.90, i64 8)
  %19 = icmp eq i32 %bcmp43, 0
  br i1 %19, label %.sink.split, label %20

20:                                               ; preds = %18
  %bcmp44 = tail call i32 @bcmp(ptr noundef nonnull dereferenceable(8) %0, ptr noundef nonnull dereferenceable(8) @.str.91, i64 8)
  %21 = icmp eq i32 %bcmp44, 0
  br i1 %21, label %.sink.split, label %36

22:                                               ; preds = %3
  %bcmp41 = tail call i32 @bcmp(ptr noundef nonnull dereferenceable(9) %0, ptr noundef nonnull dereferenceable(9) @.str.92, i64 9)
  %23 = icmp eq i32 %bcmp41, 0
  br i1 %23, label %.sink.split, label %36

24:                                               ; preds = %3
  %bcmp40 = tail call i32 @bcmp(ptr noundef nonnull dereferenceable(10) %0, ptr noundef nonnull dereferenceable(10) @.str.93, i64 10)
  %25 = icmp eq i32 %bcmp40, 0
  br i1 %25, label %.sink.split, label %36

26:                                               ; preds = %3
  %bcmp38 = tail call i32 @bcmp(ptr noundef nonnull dereferenceable(11) %0, ptr noundef nonnull dereferenceable(11) @.str.94, i64 11)
  %27 = icmp eq i32 %bcmp38, 0
  br i1 %27, label %.sink.split, label %28

28:                                               ; preds = %26
  %bcmp39 = tail call i32 @bcmp(ptr noundef nonnull dereferenceable(11) %0, ptr noundef nonnull dereferenceable(11) @.str.95, i64 11)
  %29 = icmp eq i32 %bcmp39, 0
  br i1 %29, label %.sink.split, label %36

30:                                               ; preds = %3
  %bcmp37 = tail call i32 @bcmp(ptr noundef nonnull dereferenceable(12) %0, ptr noundef nonnull dereferenceable(12) @.str.96, i64 12)
  %31 = icmp eq i32 %bcmp37, 0
  br i1 %31, label %.sink.split, label %36

32:                                               ; preds = %3
  %bcmp36 = tail call i32 @bcmp(ptr noundef nonnull dereferenceable(13) %0, ptr noundef nonnull dereferenceable(13) @.str.97, i64 13)
  %33 = icmp eq i32 %bcmp36, 0
  br i1 %33, label %.sink.split, label %36

34:                                               ; preds = %3
  %bcmp = tail call i32 @bcmp(ptr noundef nonnull dereferenceable(14) %0, ptr noundef nonnull dereferenceable(14) @.str.98, i64 14)
  %35 = icmp eq i32 %bcmp, 0
  br i1 %35, label %.sink.split, label %36

.sink.split:                                      ; preds = %34, %32, %30, %28, %26, %24, %22, %20, %18, %16, %14, %12, %10, %8, %6, %4
  %.sink = phi i32 [ 3, %4 ], [ 4, %6 ], [ 2, %8 ], [ 1, %10 ], [ 10, %12 ], [ 524288, %14 ], [ 3, %16 ], [ 4, %18 ], [ 2048, %20 ], [ 5, %22 ], [ 2, %24 ], [ 1, %26 ], [ 10, %28 ], [ 524288, %30 ], [ 2048, %32 ], [ 5, %34 ]
  store i32 %.sink, ptr %2, align 4, !tbaa !6
  br label %36

36:                                               ; preds = %.sink.split, %3, %34, %32, %30, %28, %24, %22, %20, %14, %12, %8, %6
  %.0 = phi i32 [ -1, %6 ], [ -1, %8 ], [ -1, %12 ], [ -1, %14 ], [ -1, %20 ], [ -1, %22 ], [ -1, %24 ], [ -1, %28 ], [ -1, %30 ], [ -1, %32 ], [ -1, %34 ], [ -1, %3 ], [ 0, %.sink.split ]
  ret i32 %.0
}